target datalayout = "e-m:e-p270:32:32-p271:32:32-p272:64:64-i64:64-i128:128-f80:128-n8:16:32:64-S128"
target triple = "x86_64-pc-linux-gnu"

; Function Attrs: inlinehint mustprogress nounwind uwtable
define linkonce_odr hidden noundef zeroext i1 @_ZN10ODDLParser9isNewLineIcEEbT_(i8 noundef signext %0) #12 comdat {
  %2 = alloca i8, align 1
  store i8 %0, ptr %2, align 1
  %3 = load i8, ptr %2, align 1
  %4 = sext i8 %3 to i32
  %5 = icmp eq i32 10, %4
  br i1 %5, label %10, label %6

6:                                                ; preds = %1
  %7 = load i8, ptr %2, align 1
  %8 = sext i8 %7 to i32
  %9 = icmp eq i32 13, %8
  br label %10

10:                                               ; preds = %6, %1
  %11 = phi i1 [ true, %1 ], [ %9, %6 ]
  ret i1 %11
}

; Function Attrs: inlinehint mustprogress nounwind uwtable
define linkonce_odr hidden noundef zeroext i1 @_ZN10ODDLParser7isSpaceIcEEbT_(i8 noundef signext %0) #12 comdat {
  %2 = alloca i8, align 1
  store i8 %0, ptr %2, align 1
  %3 = load i8, ptr %2, align 1
  %4 = sext i8 %3 to i32
  %5 = icmp eq i32 32, %4
  br i1 %5, label %10, label %6

6:                                                ; preds = %1
  %7 = load i8, ptr %2, align 1
  %8 = sext i8 %7 to i32
  %9 = icmp eq i32 9, %8
  br label %10

10:                                               ; preds = %6, %1
  %11 = phi i1 [ true, %1 ], [ %9, %6 ]
  ret i1 %11
}

; Function Attrs: inlinehint mustprogress nounwind willreturn memory(read) uwtable
define available_externally double @atof(ptr noundef nonnull %0) #15 {
  %2 = alloca ptr, align 8
  store ptr %0, ptr %2, align 8
  %3 = load ptr, ptr %2, align 8
  %4 = call double @strtod(ptr noundef %3, ptr noundef null) #3
  ret double %4
}

; Function Attrs: inlinehint mustprogress nounwind uwtable
define linkonce_odr hidden noundef zeroext i1 @_ZN10ODDLParser9isNumericIcEEbT_(i8 noundef signext %0) #12 comdat {
  %2 = alloca i1, align 1
  %3 = alloca i8, align 1
  %4 = alloca i64, align 8
  store i8 %0, ptr %3, align 1
  %5 = load i8, ptr %3, align 1
  %6 = sext i8 %5 to i64
  %7 = icmp uge i64 %6, 256
  br i1 %7, label %8, label %9

8:                                                ; preds = %1
  store i1 false, ptr %2, align 1
  br label %22

9:                                                ; preds = %1
  call void @llvm.lifetime.start.p0(i64 8, ptr %4) #3
  %10 = load i8, ptr %3, align 1
  %11 = sext i8 %10 to i64
  store i64 %11, ptr %4, align 8
  %12 = load i64, ptr %4, align 8
  %13 = icmp ult i64 %12, 256
  br i1 %13, label %14, label %20

14:                                               ; preds = %9
  %15 = load i64, ptr %4, align 8
  %16 = getelementptr inbounds nuw [256 x i8], ptr @_ZN10ODDLParserL14chartype_tableE, i64 0, i64 %15
  %17 = load i8, ptr %16, align 1
  %18 = zext i8 %17 to i32
  %19 = icmp eq i32 %18, 1
  br label %20

20:                                               ; preds = %14, %9
  %21 = phi i1 [ false, %9 ], [ %19, %14 ]
  store i1 %21, ptr %2, align 1
  call void @llvm.lifetime.end.p0(i64 8, ptr %4) #3
  br label %22

22:                                               ; preds = %20, %8
  %23 = load i1, ptr %2, align 1
  ret i1 %23
}

; Function Attrs: inlinehint mustprogress nounwind uwtable
define linkonce_odr hidden noundef zeroext i1 @_ZN10ODDLParser12isHexLiteralIcEEbPT_S2_(ptr noundef %0, ptr noundef %1) #12 comdat {
  %3 = alloca i1, align 1
  %4 = alloca ptr, align 8
  %5 = alloca ptr, align 8
  store ptr %0, ptr %4, align 8
  store ptr %1, ptr %5, align 8
  %6 = load ptr, ptr %4, align 8
  %7 = load i8, ptr %6, align 1
  %8 = sext i8 %7 to i32
  %9 = icmp eq i32 %8, 48
  br i1 %9, label %10, label %30

10:                                               ; preds = %2
  %11 = load ptr, ptr %4, align 8
  %12 = getelementptr inbounds i8, ptr %11, i64 1
  %13 = load ptr, ptr %5, align 8
  %14 = icmp ne ptr %12, %13
  br i1 %14, label %15, label %29

15:                                               ; preds = %10
  %16 = load ptr, ptr %4, align 8
  %17 = getelementptr inbounds i8, ptr %16, i64 1
  %18 = load i8, ptr %17, align 1
  %19 = sext i8 %18 to i32
  %20 = icmp eq i32 %19, 120
  br i1 %20, label %27, label %21

21:                                               ; preds = %15
  %22 = load ptr, ptr %4, align 8
  %23 = getelementptr inbounds i8, ptr %22, i64 1
  %24 = load i8, ptr %23, align 1
  %25 = sext i8 %24 to i32
  %26 = icmp eq i32 %25, 88
  br i1 %26, label %27, label %28

27:                                               ; preds = %21, %15
  store i1 true, ptr %3, align 1
  br label %31

28:                                               ; preds = %21
  br label %29

29:                                               ; preds = %28, %10
  br label %30

30:                                               ; preds = %29, %2
  store i1 false, ptr %3, align 1
  br label %31

31:                                               ; preds = %30, %27
  %32 = load i1, ptr %3, align 1
  ret i1 %32
}

; Function Attrs: inlinehint mustprogress uwtable
define linkonce_odr hidden noundef zeroext i1 @_ZN10ODDLParser11isSeparatorIcEEbT_(i8 noundef signext %0) #10 comdat {
  %2 = alloca i1, align 1
  %3 = alloca i8, align 1
  store i8 %0, ptr %3, align 1
  %4 = load i8, ptr %3, align 1
  %5 = call noundef zeroext i1 @_ZN10ODDLParser7isSpaceIcEEbT_(i8 noundef signext %4)
  br i1 %5, label %30, label %6

6:                                                ; preds = %1
  %7 = load i8, ptr %3, align 1
  %8 = sext i8 %7 to i32
  %9 = icmp eq i32 44, %8
  br i1 %9, label %30, label %10

10:                                               ; preds = %6
  %11 = load i8, ptr %3, align 1
  %12 = sext i8 %11 to i32
  %13 = icmp eq i32 123, %12
  br i1 %13, label %30, label %14

14:                                               ; preds = %10
  %15 = load i8, ptr %3, align 1
  %16 = sext i8 %15 to i32
  %17 = icmp eq i32 125, %16
  br i1 %17, label %30, label %18

18:                                               ; preds = %14
  %19 = load i8, ptr %3, align 1
  %20 = sext i8 %19 to i32
  %21 = icmp eq i32 91, %20
  br i1 %21, label %30, label %22

22:                                               ; preds = %18
  %23 = load i8, ptr %3, align 1
  %24 = sext i8 %23 to i32
  %25 = icmp eq i32 40, %24
  br i1 %25, label %30, label %26

26:                                               ; preds = %22
  %27 = load i8, ptr %3, align 1
  %28 = sext i8 %27 to i32
  %29 = icmp eq i32 41, %28
  br i1 %29, label %30, label %31

30:                                               ; preds = %26, %22, %18, %14, %10, %6, %1
  store i1 true, ptr %2, align 1
  br label %32

31:                                               ; preds = %26
  store i1 false, ptr %2, align 1
  br label %32

32:                                               ; preds = %31, %30
  %33 = load i1, ptr %2, align 1
  ret i1 %33
}

; Function Attrs: inlinehint mustprogress uwtable
define linkonce_odr hidden noundef ptr @_ZN10ODDLParser16lookForNextTokenIcEEPT_S2_S2_(ptr noundef %0, ptr noundef %1) #10 comdat {
  %3 = alloca ptr, align 8
  %4 = alloca ptr, align 8
  store ptr %0, ptr %3, align 8
  store ptr %1, ptr %4, align 8
  br label %5

5:                                                ; preds = %26, %2
  %6 = load ptr, ptr %3, align 8
  %7 = load ptr, ptr %4, align 8
  %8 = icmp ne ptr %6, %7
  br i1 %8, label %9, label %24

9:                                                ; preds = %5
  %10 = load ptr, ptr %3, align 8
  %11 = load i8, ptr %10, align 1
  %12 = call noundef zeroext i1 @_ZN10ODDLParser7isSpaceIcEEbT_(i8 noundef signext %11)
  br i1 %12, label %22, label %13

13:                                               ; preds = %9
  %14 = load ptr, ptr %3, align 8
  %15 = load i8, ptr %14, align 1
  %16 = call noundef zeroext i1 @_ZN10ODDLParser9isNewLineIcEEbT_(i8 noundef signext %15)
  br i1 %16, label %22, label %17

17:                                               ; preds = %13
  %18 = load ptr, ptr %3, align 8
  %19 = load i8, ptr %18, align 1
  %20 = sext i8 %19 to i32
  %21 = icmp eq i32 44, %20
  br label %22

22:                                               ; preds = %17, %13, %9
  %23 = phi i1 [ true, %13 ], [ true, %9 ], [ %21, %17 ]
  br label %24

24:                                               ; preds = %22, %5
  %25 = phi i1 [ false, %5 ], [ %23, %22 ]
  br i1 %25, label %26, label %29

26:                                               ; preds = %24
  %27 = load ptr, ptr %3, align 8
  %28 = getelementptr inbounds nuw i8, ptr %27, i32 1
  store ptr %28, ptr %3, align 8
  br label %5, !llvm.loop !13

29:                                               ; preds = %24
  %30 = load ptr, ptr %3, align 8
  ret ptr %30
}

; Function Attrs: mustprogress uwtable
define hidden noundef ptr @_ZN10ODDLParser13OpenDDLParser20parseFloatingLiteralEPcS1_PPNS_5ValueENS2_9ValueTypeE(ptr noundef %0, ptr noundef %1, ptr noundef %2, i32 noundef %3) #6 align 2 {
  %5 = alloca ptr, align 8
  %6 = alloca ptr, align 8
  %7 = alloca ptr, align 8
  %8 = alloca ptr, align 8
  %9 = alloca i32, align 4
  %10 = alloca ptr, align 8
  %11 = alloca i8, align 1
  %12 = alloca i32, align 4
  %13 = alloca double, align 8
  %14 = alloca float, align 4
  store ptr %0, ptr %6, align 8
  store ptr %1, ptr %7, align 8
  store ptr %2, ptr %8, align 8
  store i32 %3, ptr %9, align 4
  %15 = load ptr, ptr %8, align 8
  store ptr null, ptr %15, align 8
  %16 = load ptr, ptr %6, align 8
  %17 = icmp eq ptr null, %16
  br i1 %17, label %22, label %18

18:                                               ; preds = %4
  %19 = load ptr, ptr %6, align 8
  %20 = load ptr, ptr %7, align 8
  %21 = icmp eq ptr %19, %20
  br i1 %21, label %22, label %24

22:                                               ; preds = %18, %4
  %23 = load ptr, ptr %6, align 8
  store ptr %23, ptr %5, align 8
  br label %98

24:                                               ; preds = %18
  %25 = load ptr, ptr %6, align 8
  %26 = load ptr, ptr %7, align 8
  %27 = call noundef ptr @_ZN10ODDLParser16lookForNextTokenIcEEPT_S2_S2_(ptr noundef %25, ptr noundef %26)
  store ptr %27, ptr %6, align 8
  call void @llvm.lifetime.start.p0(i64 8, ptr %10) #3
  %28 = load ptr, ptr %6, align 8
  store ptr %28, ptr %10, align 8
  br label %29

29:                                               ; preds = %40, %24
  %30 = load ptr, ptr %6, align 8
  %31 = load ptr, ptr %7, align 8
  %32 = icmp ne ptr %30, %31
  br i1 %32, label %33, label %38

33:                                               ; preds = %29
  %34 = load ptr, ptr %6, align 8
  %35 = load i8, ptr %34, align 1
  %36 = call noundef zeroext i1 @_ZN10ODDLParser11isSeparatorIcEEbT_(i8 noundef signext %35)
  %37 = xor i1 %36, true
  br label %38

38:                                               ; preds = %33, %29
  %39 = phi i1 [ false, %29 ], [ %37, %33 ]
  br i1 %39, label %40, label %43

40:                                               ; preds = %38
  %41 = load ptr, ptr %6, align 8
  %42 = getelementptr inbounds nuw i8, ptr %41, i32 1
  store ptr %42, ptr %6, align 8
  br label %29, !llvm.loop !22

43:                                               ; preds = %38
  call void @llvm.lifetime.start.p0(i64 1, ptr %11) #3
  store i8 0, ptr %11, align 1
  %44 = load ptr, ptr %10, align 8
  %45 = load ptr, ptr %7, align 8
  %46 = call noundef zeroext i1 @_ZN10ODDLParser12isHexLiteralIcEEbPT_S2_(ptr noundef %44, ptr noundef %45)
  br i1 %46, label %47, label %53

47:                                               ; preds = %43
  %48 = load ptr, ptr %10, align 8
  %49 = load ptr, ptr %7, align 8
  %50 = load ptr, ptr %8, align 8
  %51 = call noundef ptr @_ZN10ODDLParser13OpenDDLParser16parseHexaLiteralEPcS1_PPNS_5ValueE(ptr noundef %48, ptr noundef %49, ptr noundef %50)
  %52 = load ptr, ptr %6, align 8
  store ptr %52, ptr %5, align 8
  store i32 1, ptr %12, align 4
  br label %97

53:                                               ; preds = %43
  %54 = load ptr, ptr %10, align 8
  %55 = load i8, ptr %54, align 1
  %56 = call noundef zeroext i1 @_ZN10ODDLParser9isNumericIcEEbT_(i8 noundef signext %55)
  br i1 %56, label %57, label %58

57:                                               ; preds = %53
  store i8 1, ptr %11, align 1
  br label %71

58:                                               ; preds = %53
  %59 = load ptr, ptr %10, align 8
  %60 = load i8, ptr %59, align 1
  %61 = sext i8 %60 to i32
  %62 = icmp eq i32 %61, 45
  br i1 %62, label %63, label %70

63:                                               ; preds = %58
  %64 = load ptr, ptr %10, align 8
  %65 = getelementptr inbounds i8, ptr %64, i64 1
  %66 = load i8, ptr %65, align 1
  %67 = call noundef zeroext i1 @_ZN10ODDLParser9isNumericIcEEbT_(i8 noundef signext %66)
  br i1 %67, label %68, label %69

68:                                               ; preds = %63
  store i8 1, ptr %11, align 1
  br label %69

69:                                               ; preds = %68, %63
  br label %70

70:                                               ; preds = %69, %58
  br label %71

71:                                               ; preds = %70, %57
  %72 = load i8, ptr %11, align 1, !range !10, !noundef !11
  %73 = trunc i8 %72 to i1
  br i1 %73, label %74, label %95

74:                                               ; preds = %71
  %75 = load i32, ptr %9, align 4
  %76 = icmp eq i32 %75, 11
  br i1 %76, label %77, label %85

77:                                               ; preds = %74
  call void @llvm.lifetime.start.p0(i64 8, ptr %13) #3
  %78 = load ptr, ptr %10, align 8
  %79 = call double @atof(ptr noundef %78) #23
  store double %79, ptr %13, align 8
  %80 = call noundef ptr @_ZN10ODDLParser14ValueAllocator13allocPrimDataENS_5Value9ValueTypeEm(i32 noundef 11, i64 noundef 1)
  %81 = load ptr, ptr %8, align 8
  store ptr %80, ptr %81, align 8
  %82 = load ptr, ptr %8, align 8
  %83 = load ptr, ptr %82, align 8
  %84 = load double, ptr %13, align 8
  call void @_ZN10ODDLParser5Value9setDoubleEd(ptr noundef nonnull align 8 dereferenceable(32) %83, double noundef %84)
  call void @llvm.lifetime.end.p0(i64 8, ptr %13) #3
  br label %94

85:                                               ; preds = %74
  call void @llvm.lifetime.start.p0(i64 4, ptr %14) #3
  %86 = load ptr, ptr %10, align 8
  %87 = call double @atof(ptr noundef %86) #23
  %88 = fptrunc double %87 to float
  store float %88, ptr %14, align 4
  %89 = call noundef ptr @_ZN10ODDLParser14ValueAllocator13allocPrimDataENS_5Value9ValueTypeEm(i32 noundef 10, i64 noundef 1)
  %90 = load ptr, ptr %8, align 8
  store ptr %89, ptr %90, align 8
  %91 = load ptr, ptr %8, align 8
  %92 = load ptr, ptr %91, align 8
  %93 = load float, ptr %14, align 4
  call void @_ZN10ODDLParser5Value8setFloatEf(ptr noundef nonnull align 8 dereferenceable(32) %92, float noundef %93)
  call void @llvm.lifetime.end.p0(i64 4, ptr %14) #3
  br label %94

94:                                               ; preds = %85, %77
  br label %95

95:                                               ; preds = %94, %71
  %96 = load ptr, ptr %6, align 8
  store ptr %96, ptr %5, align 8
  store i32 1, ptr %12, align 4
  br label %97

97:                                               ; preds = %95, %47
  call void @llvm.lifetime.end.p0(i64 1, ptr %11) #3
  call void @llvm.lifetime.end.p0(i64 8, ptr %10) #3
  br label %98

98:                                               ; preds = %97, %22
  %99 = load ptr, ptr %5, align 8
  ret ptr %99
}