; Function Attrs: mustprogress uwtable
define hidden noundef ptr @_ZN10ODDLParser13OpenDDLParser20parseFloatingLiteralEPcS1_PPNS_5ValueENS2_9ValueTypeE(ptr noundef %0, ptr noundef %1, ptr noundef writeonly captures(none) initializes((0, 8)) %2, i32 noundef %3) local_unnamed_addr #6 align 2 {
  %5 = ptrtoint ptr %1 to i64
  store ptr null, ptr %2, align 8
  %6 = icmp eq ptr %0, null
  %7 = icmp eq ptr %0, %1
  %or.cond = or i1 %6, %7
  br i1 %or.cond, label %.critedge37, label %.lr.ph.preheader.i

.lr.ph.preheader.i:                               ; preds = %4
  %8 = ptrtoint ptr %0 to i64
  %9 = sub i64 %5, %8
  %scevgep.i = getelementptr i8, ptr %0, i64 %9
  br label %.lr.ph.i

.lr.ph.i:                                         ; preds = %.critedge2.i, %.lr.ph.preheader.i
  %.010.i = phi ptr [ %11, %.critedge2.i ], [ %0, %.lr.ph.preheader.i ]
  %10 = load i8, ptr %.010.i, align 1
  switch i8 %10, label %_ZN10ODDLParser16lookForNextTokenIcEEPT_S2_S2_.exit [
    i8 32, label %.critedge2.i
    i8 9, label %.critedge2.i
    i8 13, label %.critedge2.i
    i8 10, label %.critedge2.i
    i8 44, label %.critedge2.i
  ]

.critedge2.i:                                     ; preds = %.lr.ph.i, %.lr.ph.i, %.lr.ph.i, %.lr.ph.i, %.lr.ph.i
  %11 = getelementptr inbounds nuw i8, ptr %.010.i, i64 1
  %.not.i = icmp eq ptr %11, %1
  br i1 %.not.i, label %_ZN10ODDLParser16lookForNextTokenIcEEPT_S2_S2_.exit, label %.lr.ph.i, !llvm.loop !8

_ZN10ODDLParser16lookForNextTokenIcEEPT_S2_S2_.exit: ; preds = %.lr.ph.i, %.critedge2.i
  %.0.lcssa.i = phi ptr [ %.010.i, %.lr.ph.i ], [ %scevgep.i, %.critedge2.i ]
  %.not49 = icmp eq ptr %.0.lcssa.i, %1
  br i1 %.not49, label %.critedge, label %.lr.ph.preheader

.lr.ph.preheader:                                 ; preds = %_ZN10ODDLParser16lookForNextTokenIcEEPT_S2_S2_.exit
  %.0.lcssa.i67 = ptrtoint ptr %.0.lcssa.i to i64
  %12 = sub i64 %5, %.0.lcssa.i67
  %scevgep = getelementptr i8, ptr %.0.lcssa.i, i64 %12
  br label %.lr.ph

.lr.ph:                                           ; preds = %.lr.ph.preheader, %14
  %.03250 = phi ptr [ %15, %14 ], [ %.0.lcssa.i, %.lr.ph.preheader ]
  %13 = load i8, ptr %.03250, align 1
  switch i8 %13, label %14 [
    i8 125, label %.critedge
    i8 123, label %.critedge
    i8 91, label %.critedge
    i8 44, label %.critedge
    i8 41, label %.critedge
    i8 40, label %.critedge
    i8 32, label %.critedge
    i8 9, label %.critedge
  ]

14:                                               ; preds = %.lr.ph
  %15 = getelementptr inbounds nuw i8, ptr %.03250, i64 1
  %.not = icmp eq ptr %15, %1
  br i1 %.not, label %.critedge, label %.lr.ph, !llvm.loop !35

.critedge:                                        ; preds = %14, %.lr.ph, %.lr.ph, %.lr.ph, %.lr.ph, %.lr.ph, %.lr.ph, %.lr.ph, %.lr.ph, %_ZN10ODDLParser16lookForNextTokenIcEEPT_S2_S2_.exit
  %.032.lcssa = phi ptr [ %.0.lcssa.i, %_ZN10ODDLParser16lookForNextTokenIcEEPT_S2_S2_.exit ], [ %.03250, %.lr.ph ], [ %.03250, %.lr.ph ], [ %.03250, %.lr.ph ], [ %.03250, %.lr.ph ], [ %.03250, %.lr.ph ], [ %.03250, %.lr.ph ], [ %.03250, %.lr.ph ], [ %.03250, %.lr.ph ], [ %scevgep, %14 ]
  %16 = load i8, ptr %.0.lcssa.i, align 1
  %17 = icmp eq i8 %16, 48
  br i1 %17, label %18, label %24

18:                                               ; preds = %.critedge
  %19 = getelementptr inbounds nuw i8, ptr %.0.lcssa.i, i64 1
  %.not.i40 = icmp eq ptr %19, %1
  br i1 %.not.i40, label %_ZN10ODDLParser9isNumericIcEEbT_.exit, label %_ZN10ODDLParser12isHexLiteralIcEEbPT_S2_.exit

_ZN10ODDLParser12isHexLiteralIcEEbPT_S2_.exit:    ; preds = %18
  %20 = load i8, ptr %19, align 1
  %21 = add i8 %20, -88
  %switch.and.i = and i8 %21, -33
  %switch.selectcmp.i = icmp eq i8 %switch.and.i, 0
  br i1 %switch.selectcmp.i, label %22, label %_ZN10ODDLParser9isNumericIcEEbT_.exit

22:                                               ; preds = %_ZN10ODDLParser12isHexLiteralIcEEbPT_S2_.exit
  %23 = tail call noundef ptr @_ZN10ODDLParser13OpenDDLParser16parseHexaLiteralEPcS1_PPNS_5ValueE(ptr noundef nonnull %.0.lcssa.i, ptr noundef %1, ptr noundef nonnull %2)
  br label %.critedge37

24:                                               ; preds = %.critedge
  %25 = icmp slt i8 %16, 0
  br i1 %25, label %.critedge37, label %_ZN10ODDLParser9isNumericIcEEbT_.exit

_ZN10ODDLParser9isNumericIcEEbT_.exit:            ; preds = %_ZN10ODDLParser12isHexLiteralIcEEbPT_S2_.exit, %18, %24
  %26 = zext nneg i8 %16 to i64
  %27 = getelementptr inbounds nuw [256 x i8], ptr @_ZN10ODDLParserL14chartype_tableE, i64 0, i64 %26
  %28 = load i8, ptr %27, align 1
  %29 = icmp eq i8 %28, 1
  br i1 %29, label %.critedge39, label %30

30:                                               ; preds = %_ZN10ODDLParser9isNumericIcEEbT_.exit
  %31 = icmp eq i8 %16, 45
  br i1 %31, label %32, label %.critedge37

32:                                               ; preds = %30
  %33 = getelementptr inbounds nuw i8, ptr %.0.lcssa.i, i64 1
  %34 = load i8, ptr %33, align 1
  %35 = icmp slt i8 %34, 0
  br i1 %35, label %.critedge37, label %_ZN10ODDLParser9isNumericIcEEbT_.exit43

_ZN10ODDLParser9isNumericIcEEbT_.exit43:          ; preds = %32
  %36 = zext nneg i8 %34 to i64
  %37 = getelementptr inbounds nuw [256 x i8], ptr @_ZN10ODDLParserL14chartype_tableE, i64 0, i64 %36
  %38 = load i8, ptr %37, align 1
  %39 = icmp eq i8 %38, 1
  br i1 %39, label %.critedge39, label %.critedge37

.critedge39:                                      ; preds = %_ZN10ODDLParser9isNumericIcEEbT_.exit, %_ZN10ODDLParser9isNumericIcEEbT_.exit43
  %40 = icmp eq i32 %3, 11
  %41 = tail call double @strtod(ptr noundef nonnull captures(none) %.0.lcssa.i, ptr noundef null) #29
  br i1 %40, label %42, label %44

42:                                               ; preds = %.critedge39
  %43 = tail call noundef ptr @_ZN10ODDLParser14ValueAllocator13allocPrimDataENS_5Value9ValueTypeEm(i32 noundef 11, i64 noundef 1)
  store ptr %43, ptr %2, align 8
  tail call void @_ZN10ODDLParser5Value9setDoubleEd(ptr noundef nonnull align 8 dereferenceable(32) %43, double noundef %41)
  br label %.critedge37

44:                                               ; preds = %.critedge39
  %45 = fptrunc double %41 to float
  %46 = tail call noundef ptr @_ZN10ODDLParser14ValueAllocator13allocPrimDataENS_5Value9ValueTypeEm(i32 noundef 10, i64 noundef 1)
  store ptr %46, ptr %2, align 8
  tail call void @_ZN10ODDLParser5Value8setFloatEf(ptr noundef nonnull align 8 dereferenceable(32) %46, float noundef %45)
  br label %.critedge37

.critedge37:                                      ; preds = %32, %24, %22, %30, %42, %44, %_ZN10ODDLParser9isNumericIcEEbT_.exit43, %4
  %.0 = phi ptr [ %0, %4 ], [ %.032.lcssa, %_ZN10ODDLParser9isNumericIcEEbT_.exit43 ], [ %.032.lcssa, %44 ], [ %.032.lcssa, %42 ], [ %.032.lcssa, %30 ], [ %.032.lcssa, %22 ], [ %.032.lcssa, %24 ], [ %.032.lcssa, %32 ]
  ret ptr %.0
}